target datalayout = "e-m:e-p270:32:32-p271:32:32-p272:64:64-i64:64-i128:128-f80:128-n8:16:32:64-S128"
target triple = "x86_64-pc-linux-gnu"

; Function Attrs: nounwind uwtable
define dso_local ptr @xdl_alloc_grow_helper(ptr noundef %0, i64 noundef %1, ptr noundef %2, i64 noundef %3) #0 {
  %5 = alloca ptr, align 8
  %6 = alloca i64, align 8
  %7 = alloca ptr, align 8
  %8 = alloca i64, align 8
  %9 = alloca ptr, align 8
  %10 = alloca i64, align 8
  store ptr %0, ptr %5, align 8, !tbaa !47
  store i64 %1, ptr %6, align 8, !tbaa !4
  store ptr %2, ptr %7, align 8, !tbaa !26
  store i64 %3, ptr %8, align 8, !tbaa !4
  call void @llvm.lifetime.start.p0(i64 8, ptr %9) #6
  store ptr null, ptr %9, align 8, !tbaa !47
  call void @llvm.lifetime.start.p0(i64 8, ptr %10) #6
  %11 = load ptr, ptr %7, align 8, !tbaa !26
  %12 = load i64, ptr %11, align 8, !tbaa !4
  %13 = icmp sge i64 4611686018427387895, %12
  br i1 %13, label %14, label %19

14:                                               ; preds = %4
  %15 = load ptr, ptr %7, align 8, !tbaa !26
  %16 = load i64, ptr %15, align 8, !tbaa !4
  %17 = mul nsw i64 2, %16
  %18 = add nsw i64 %17, 16
  br label %20

19:                                               ; preds = %4
  br label %20

20:                                               ; preds = %19, %14
  %21 = phi i64 [ %18, %14 ], [ 9223372036854775807, %19 ]
  store i64 %21, ptr %10, align 8, !tbaa !4
  %22 = load i64, ptr %6, align 8, !tbaa !4
  %23 = load i64, ptr %10, align 8, !tbaa !4
  %24 = icmp ugt i64 %22, %23
  br i1 %24, label %25, label %27

25:                                               ; preds = %20
  %26 = load i64, ptr %6, align 8, !tbaa !4
  store i64 %26, ptr %10, align 8, !tbaa !4
  br label %27

27:                                               ; preds = %25, %20
  %28 = load i64, ptr %8, align 8, !tbaa !4
  %29 = udiv i64 -1, %28
  %30 = load i64, ptr %10, align 8, !tbaa !4
  %31 = icmp uge i64 %29, %30
  br i1 %31, label %32, label %38

32:                                               ; preds = %27
  %33 = load ptr, ptr %5, align 8, !tbaa !47
  %34 = load i64, ptr %10, align 8, !tbaa !4
  %35 = load i64, ptr %8, align 8, !tbaa !4
  %36 = mul i64 %34, %35
  %37 = call ptr @xrealloc(ptr noundef %33, i64 noundef %36)
  store ptr %37, ptr %9, align 8, !tbaa !47
  br label %38

38:                                               ; preds = %32, %27
  %39 = load ptr, ptr %9, align 8, !tbaa !47
  %40 = icmp ne ptr %39, null
  br i1 %40, label %41, label %44

41:                                               ; preds = %38
  %42 = load i64, ptr %10, align 8, !tbaa !4
  %43 = load ptr, ptr %7, align 8, !tbaa !26
  store i64 %42, ptr %43, align 8, !tbaa !4
  br label %47

44:                                               ; preds = %38
  %45 = load ptr, ptr %5, align 8, !tbaa !47
  call void @free(ptr noundef %45) #6
  %46 = load ptr, ptr %7, align 8, !tbaa !26
  store i64 0, ptr %46, align 8, !tbaa !4
  br label %47

47:                                               ; preds = %44, %41
  %48 = load ptr, ptr %9, align 8, !tbaa !47
  call void @llvm.lifetime.end.p0(i64 8, ptr %10) #6
  call void @llvm.lifetime.end.p0(i64 8, ptr %9) #6
  ret ptr %48
}