; Function Attrs: nounwind uwtable
define dso_local ptr @xdl_alloc_grow_helper(ptr noundef %0, i64 noundef %1, ptr noundef captures(none) %2, i64 noundef %3) local_unnamed_addr #2 {
  %5 = load i64, ptr %2, align 8, !tbaa !20
  %6 = icmp slt i64 %5, 4611686018427387896
  %7 = shl nsw i64 %5, 1
  %8 = add nsw i64 %7, 16
  %9 = select i1 %6, i64 %8, i64 9223372036854775807
  %.0 = tail call i64 @llvm.umax.i64(i64 %1, i64 %9)
  %mul = tail call { i64, i1 } @llvm.umul.with.overflow.i64(i64 %3, i64 %.0)
  %mul.ov = extractvalue { i64, i1 } %mul, 1
  br i1 %mul.ov, label %.thread, label %10

10:                                               ; preds = %4
  %11 = mul i64 %.0, %3
  %12 = tail call ptr @xrealloc(ptr noundef %0, i64 noundef %11) #18
  %.not = icmp eq ptr %12, null
  br i1 %.not, label %.thread, label %13

.thread:                                          ; preds = %4, %10
  tail call void @free(ptr noundef %0) #18
  br label %13

13:                                               ; preds = %10, %.thread
  %.01521 = phi ptr [ null, %.thread ], [ %12, %10 ]
  %storemerge = phi i64 [ 0, %.thread ], [ %.0, %10 ]
  store i64 %storemerge, ptr %2, align 8, !tbaa !20
  ret ptr %.01521
}